; Function Attrs: nounwind uwtable
define internal noundef i32 @config_props_in(ptr noundef readonly captures(none) %0) #0 {
  %2 = getelementptr inbounds nuw i8, ptr %0, i64 16
  %3 = load ptr, ptr %2, align 8, !tbaa !4
  %4 = getelementptr inbounds nuw i8, ptr %0, i64 96
  %5 = load i32, ptr %4, align 8, !tbaa !296
  %6 = getelementptr inbounds nuw i8, ptr %0, i64 100
  %7 = load i32, ptr %6, align 4, !tbaa !297
  %8 = getelementptr inbounds nuw i8, ptr %0, i64 264
  %9 = load i32, ptr %8, align 8, !tbaa !298
  %10 = getelementptr inbounds nuw i8, ptr %0, i64 268
  %11 = load i32, ptr %10, align 4, !tbaa !299
  tail call void (ptr, i32, ptr, ...) @av_log(ptr noundef %3, i32 noundef 32, ptr noundef nonnull @.str.224, ptr noundef nonnull @.str.226, i32 noundef %5, i32 noundef %7, i32 noundef %9, i32 noundef %11) #11
  ret i32 0
}